target datalayout = "e-m:e-p270:32:32-p271:32:32-p272:64:64-i64:64-i128:128-f80:128-n8:16:32:64-S128"
target triple = "x86_64-pc-linux-gnu"

%"class.llvm::object::content_iterator" = type { %"class.llvm::object::SectionRef" }
%"class.llvm::object::SectionRef" = type { %"union.llvm::object::DataRefImpl", ptr }
%"union.llvm::object::DataRefImpl" = type { i64 }
%"class.llvm::object::content_iterator.39" = type { %"class.llvm::object::RelocationRef" }
%"class.llvm::object::RelocationRef" = type { %"union.llvm::object::DataRefImpl", ptr }

; Function Attrs: mustprogress nounwind uwtable
define linkonce_odr hidden noundef zeroext i1 @_ZN4llvm6objecteqERKNS0_11DataRefImplES3_(ptr noundef nonnull align 8 dereferenceable(8) %0, ptr noundef nonnull align 8 dereferenceable(8) %1) #0 comdat {
  %3 = alloca ptr, align 8
  %4 = alloca ptr, align 8
  store ptr %0, ptr %3, align 8
  store ptr %1, ptr %4, align 8
  %5 = load ptr, ptr %3, align 8
  %6 = load ptr, ptr %4, align 8
  %7 = call i32 @memcmp(ptr noundef %5, ptr noundef %6, i64 noundef 8) #17
  %8 = icmp eq i32 %7, 0
  ret i1 %8
}

; Function Attrs: mustprogress nounwind uwtable
define linkonce_odr hidden noundef zeroext i1 @_ZNK4llvm6object13RelocationRefeqERKS1_(ptr noundef nonnull align 8 dereferenceable(16) %0, ptr noundef nonnull align 8 dereferenceable(16) %1) #0 comdat align 2 {
  %3 = alloca ptr, align 8
  %4 = alloca ptr, align 8
  store ptr %0, ptr %3, align 8
  store ptr %1, ptr %4, align 8
  %5 = load ptr, ptr %3, align 8
  %6 = getelementptr inbounds nuw %"class.llvm::object::RelocationRef", ptr %5, i32 0, i32 0
  %7 = load ptr, ptr %4, align 8
  %8 = getelementptr inbounds nuw %"class.llvm::object::RelocationRef", ptr %7, i32 0, i32 0
  %9 = call noundef zeroext i1 @_ZN4llvm6objecteqERKNS0_11DataRefImplES3_(ptr noundef nonnull align 8 dereferenceable(8) %6, ptr noundef nonnull align 8 dereferenceable(8) %8)
  ret i1 %9
}

; Function Attrs: mustprogress nounwind uwtable
define linkonce_odr hidden noundef zeroext i1 @_ZNK4llvm6object16content_iteratorINS0_13RelocationRefEEeqERKS3_(ptr noundef nonnull align 8 dereferenceable(16) %0, ptr noundef nonnull align 8 dereferenceable(16) %1) #0 comdat align 2 {
  %3 = alloca ptr, align 8
  %4 = alloca ptr, align 8
  store ptr %0, ptr %3, align 8
  store ptr %1, ptr %4, align 8
  %5 = load ptr, ptr %3, align 8
  %6 = getelementptr inbounds nuw %"class.llvm::object::content_iterator.39", ptr %5, i32 0, i32 0
  %7 = load ptr, ptr %4, align 8
  %8 = getelementptr inbounds nuw %"class.llvm::object::content_iterator.39", ptr %7, i32 0, i32 0
  %9 = call noundef zeroext i1 @_ZNK4llvm6object13RelocationRefeqERKS1_(ptr noundef nonnull align 8 dereferenceable(16) %6, ptr noundef nonnull align 8 dereferenceable(16) %8)
  ret i1 %9
}

; Function Attrs: mustprogress nounwind uwtable
define linkonce_odr hidden { i64, ptr } @_ZNK4llvm6object10SectionRef14relocation_endEv(ptr noundef nonnull align 8 dereferenceable(16) %0) #0 comdat align 2 {
  %2 = alloca %"class.llvm::object::content_iterator.39", align 8
  %3 = alloca ptr, align 8
  %4 = alloca %"union.llvm::object::DataRefImpl", align 8
  store ptr %0, ptr %3, align 8
  %5 = load ptr, ptr %3, align 8
  %6 = getelementptr inbounds nuw %"class.llvm::object::SectionRef", ptr %5, i32 0, i32 1
  %7 = load ptr, ptr %6, align 8
  %8 = getelementptr inbounds nuw %"class.llvm::object::SectionRef", ptr %5, i32 0, i32 0
  call void @llvm.memcpy.p0.p0.i64(ptr align 8 %4, ptr align 8 %8, i64 8, i1 false)
  %9 = getelementptr inbounds nuw %"union.llvm::object::DataRefImpl", ptr %4, i32 0, i32 0
  %10 = load i64, ptr %9, align 8
  %11 = load ptr, ptr %7, align 8
  %12 = getelementptr inbounds ptr, ptr %11, i64 35
  %13 = load ptr, ptr %12, align 8
  %14 = call { i64, ptr } %13(ptr noundef nonnull align 8 dereferenceable(48) %7, i64 %10)
  %15 = getelementptr inbounds nuw %"class.llvm::object::content_iterator.39", ptr %2, i32 0, i32 0
  %16 = getelementptr inbounds nuw { i64, ptr }, ptr %15, i32 0, i32 0
  %17 = extractvalue { i64, ptr } %14, 0
  store i64 %17, ptr %16, align 8
  %18 = getelementptr inbounds nuw { i64, ptr }, ptr %15, i32 0, i32 1
  %19 = extractvalue { i64, ptr } %14, 1
  store ptr %19, ptr %18, align 8
  %20 = getelementptr inbounds nuw %"class.llvm::object::content_iterator.39", ptr %2, i32 0, i32 0
  %21 = load { i64, ptr }, ptr %20, align 8
  ret { i64, ptr } %21
}

; Function Attrs: mustprogress nounwind uwtable
define linkonce_odr hidden noundef ptr @_ZNK4llvm6object16content_iteratorINS0_10SectionRefEEptEv(ptr noundef nonnull align 8 dereferenceable(16) %0) #0 comdat align 2 {
  %2 = alloca ptr, align 8
  store ptr %0, ptr %2, align 8
  %3 = load ptr, ptr %2, align 8
  %4 = getelementptr inbounds nuw %"class.llvm::object::content_iterator", ptr %3, i32 0, i32 0
  ret ptr %4
}

; Function Attrs: mustprogress nounwind uwtable
define linkonce_odr hidden noundef ptr @_Z6unwrapP25LLVMOpaqueSectionIterator(ptr noundef %0) #0 comdat {
  %2 = alloca ptr, align 8
  store ptr %0, ptr %2, align 8
  %3 = load ptr, ptr %2, align 8
  ret ptr %3
}

; Function Attrs: mustprogress nounwind uwtable
define linkonce_odr hidden noundef ptr @_Z6unwrapP28LLVMOpaqueRelocationIterator(ptr noundef %0) #0 comdat {
  %2 = alloca ptr, align 8
  store ptr %0, ptr %2, align 8
  %3 = load ptr, ptr %2, align 8
  ret ptr %3
}

; Function Attrs: mustprogress nounwind uwtable
define dso_local i32 @LLVMIsRelocationIteratorAtEnd(ptr noundef %0, ptr noundef %1) #0 {
  %3 = alloca ptr, align 8
  %4 = alloca ptr, align 8
  %5 = alloca %"class.llvm::object::content_iterator.39", align 8
  store ptr %0, ptr %3, align 8
  store ptr %1, ptr %4, align 8
  %6 = load ptr, ptr %4, align 8
  %7 = call noundef ptr @_Z6unwrapP28LLVMOpaqueRelocationIterator(ptr noundef %6)
  %8 = load ptr, ptr %3, align 8
  %9 = call noundef ptr @_Z6unwrapP25LLVMOpaqueSectionIterator(ptr noundef %8)
  %10 = call noundef ptr @_ZNK4llvm6object16content_iteratorINS0_10SectionRefEEptEv(ptr noundef nonnull align 8 dereferenceable(16) %9)
  %11 = call { i64, ptr } @_ZNK4llvm6object10SectionRef14relocation_endEv(ptr noundef nonnull align 8 dereferenceable(16) %10)
  %12 = getelementptr inbounds nuw %"class.llvm::object::content_iterator.39", ptr %5, i32 0, i32 0
  %13 = getelementptr inbounds nuw { i64, ptr }, ptr %12, i32 0, i32 0
  %14 = extractvalue { i64, ptr } %11, 0
  store i64 %14, ptr %13, align 8
  %15 = getelementptr inbounds nuw { i64, ptr }, ptr %12, i32 0, i32 1
  %16 = extractvalue { i64, ptr } %11, 1
  store ptr %16, ptr %15, align 8
  %17 = call noundef zeroext i1 @_ZNK4llvm6object16content_iteratorINS0_13RelocationRefEEeqERKS3_(ptr noundef nonnull align 8 dereferenceable(16) %7, ptr noundef nonnull align 8 dereferenceable(16) %5)
  %18 = select i1 %17, i32 1, i32 0
  ret i32 %18
}