; Function Attrs: mustprogress nounwind uwtable
define dso_local range(i32 0, 2) i32 @LLVMIsRelocationIteratorAtEnd(ptr nocapture noundef readonly %0, ptr nocapture noundef readonly %1) local_unnamed_addr #0 {
  %3 = getelementptr inbounds nuw i8, ptr %0, i64 8
  %4 = load ptr, ptr %3, align 8
  %.sroa.0.0.copyload.i = load i64, ptr %0, align 8
  %5 = load ptr, ptr %4, align 8
  %6 = getelementptr inbounds i8, ptr %5, i64 280
  %7 = load ptr, ptr %6, align 8
  %8 = tail call { i64, ptr } %7(ptr noundef nonnull align 8 dereferenceable(48) %4, i64 %.sroa.0.0.copyload.i) #17
  %9 = extractvalue { i64, ptr } %8, 0
  %lhsv.i.i.i = load i64, ptr %1, align 8
  %.not.i.i.i = icmp eq i64 %lhsv.i.i.i, %9
  %10 = zext i1 %.not.i.i.i to i32
  ret i32 %10
}